; Function Attrs: mustprogress nounwind uwtable
define dso_local void @_ZNSt3__113random_deviceD2Ev(ptr noundef nonnull readonly align 4 captures(none) dereferenceable(4) %0) unnamed_addr #5 align 2 personality ptr @__gxx_personality_v0 {
  %2 = load i32, ptr %0, align 4, !tbaa !4
  %3 = invoke i32 @close(i32 noundef %2)
          to label %4 unwind label %5

4:                                                ; preds = %1
  ret void

5:                                                ; preds = %1
  %6 = landingpad { ptr, i32 }
          catch ptr null
  %7 = extractvalue { ptr, i32 } %6, 0
  tail call void @__clang_call_terminate(ptr %7) #15
  unreachable
}